target datalayout = "e-m:e-p270:32:32-p271:32:32-p272:64:64-i64:64-i128:128-f80:128-n8:16:32:64-S128"
target triple = "x86_64-pc-linux-gnu"

%"class.llvm::StringRef" = type { ptr, i64 }
%"struct.std::pair" = type { i8, i32 }

; Function Attrs: mustprogress nounwind uwtable
define linkonce_odr hidden void @_ZN4llvm9StringRefC2EPKcm(ptr noundef nonnull align 8 dereferenceable(16) %0, ptr noundef %1, i64 noundef %2) unnamed_addr #1 comdat align 2 {
  %4 = alloca ptr, align 8
  %5 = alloca ptr, align 8
  %6 = alloca i64, align 8
  store ptr %0, ptr %4, align 8
  store ptr %1, ptr %5, align 8
  store i64 %2, ptr %6, align 8
  %7 = load ptr, ptr %4, align 8
  %8 = getelementptr inbounds nuw %"class.llvm::StringRef", ptr %7, i32 0, i32 0
  %9 = load ptr, ptr %5, align 8
  store ptr %9, ptr %8, align 8
  %10 = getelementptr inbounds nuw %"class.llvm::StringRef", ptr %7, i32 0, i32 1
  %11 = load i64, ptr %6, align 8
  store i64 %11, ptr %10, align 8
  ret void
}

; Function Attrs: mustprogress nounwind uwtable
define linkonce_odr noundef nonnull align 8 dereferenceable(8) ptr @_ZSt3minImERKT_S2_S2_(ptr noundef nonnull align 8 dereferenceable(8) %0, ptr noundef nonnull align 8 dereferenceable(8) %1) #1 comdat {
  %3 = alloca ptr, align 8
  %4 = alloca ptr, align 8
  %5 = alloca ptr, align 8
  store ptr %0, ptr %4, align 8
  store ptr %1, ptr %5, align 8
  %6 = load ptr, ptr %5, align 8
  %7 = load i64, ptr %6, align 8
  %8 = load ptr, ptr %4, align 8
  %9 = load i64, ptr %8, align 8
  %10 = icmp ult i64 %7, %9
  br i1 %10, label %11, label %13

11:                                               ; preds = %2
  %12 = load ptr, ptr %5, align 8
  store ptr %12, ptr %3, align 8
  br label %15

13:                                               ; preds = %2
  %14 = load ptr, ptr %4, align 8
  store ptr %14, ptr %3, align 8
  br label %15

15:                                               ; preds = %13, %11
  %16 = load ptr, ptr %3, align 8
  ret ptr %16
}

; Function Attrs: mustprogress nounwind uwtable
define linkonce_odr hidden { ptr, i64 } @_ZNK4llvm9StringRef6substrEmm(ptr noundef nonnull align 8 dereferenceable(16) %0, i64 noundef %1, i64 noundef %2) #1 comdat align 2 {
  %4 = alloca %"class.llvm::StringRef", align 8
  %5 = alloca ptr, align 8
  %6 = alloca i64, align 8
  %7 = alloca i64, align 8
  %8 = alloca i64, align 8
  store ptr %0, ptr %5, align 8
  store i64 %1, ptr %6, align 8
  store i64 %2, ptr %7, align 8
  %9 = load ptr, ptr %5, align 8
  %10 = getelementptr inbounds nuw %"class.llvm::StringRef", ptr %9, i32 0, i32 1
  %11 = call noundef nonnull align 8 dereferenceable(8) ptr @_ZSt3minImERKT_S2_S2_(ptr noundef nonnull align 8 dereferenceable(8) %6, ptr noundef nonnull align 8 dereferenceable(8) %10)
  %12 = load i64, ptr %11, align 8
  store i64 %12, ptr %6, align 8
  %13 = getelementptr inbounds nuw %"class.llvm::StringRef", ptr %9, i32 0, i32 0
  %14 = load ptr, ptr %13, align 8
  %15 = load i64, ptr %6, align 8
  %16 = getelementptr inbounds i8, ptr %14, i64 %15
  %17 = getelementptr inbounds nuw %"class.llvm::StringRef", ptr %9, i32 0, i32 1
  %18 = load i64, ptr %17, align 8
  %19 = load i64, ptr %6, align 8
  %20 = sub i64 %18, %19
  store i64 %20, ptr %8, align 8
  %21 = call noundef nonnull align 8 dereferenceable(8) ptr @_ZSt3minImERKT_S2_S2_(ptr noundef nonnull align 8 dereferenceable(8) %7, ptr noundef nonnull align 8 dereferenceable(8) %8)
  %22 = load i64, ptr %21, align 8
  call void @_ZN4llvm9StringRefC2EPKcm(ptr noundef nonnull align 8 dereferenceable(16) %4, ptr noundef %16, i64 noundef %22)
  %23 = load { ptr, i64 }, ptr %4, align 8
  ret { ptr, i64 } %23
}

; Function Attrs: mustprogress nounwind uwtable
define linkonce_odr hidden { ptr, i64 } @_ZNK4llvm9StringRef10drop_frontEm(ptr noundef nonnull align 8 dereferenceable(16) %0, i64 noundef %1) #1 comdat align 2 {
  %3 = alloca %"class.llvm::StringRef", align 8
  %4 = alloca ptr, align 8
  %5 = alloca i64, align 8
  store ptr %0, ptr %4, align 8
  store i64 %1, ptr %5, align 8
  %6 = load ptr, ptr %4, align 8
  %7 = load i64, ptr %5, align 8
  %8 = call { ptr, i64 } @_ZNK4llvm9StringRef6substrEmm(ptr noundef nonnull align 8 dereferenceable(16) %6, i64 noundef %7, i64 noundef -1)
  %9 = getelementptr inbounds nuw { ptr, i64 }, ptr %3, i32 0, i32 0
  %10 = extractvalue { ptr, i64 } %8, 0
  store ptr %10, ptr %9, align 8
  %11 = getelementptr inbounds nuw { ptr, i64 }, ptr %3, i32 0, i32 1
  %12 = extractvalue { ptr, i64 } %8, 1
  store i64 %12, ptr %11, align 8
  %13 = load { ptr, i64 }, ptr %3, align 8
  ret { ptr, i64 } %13
}

; Function Attrs: mustprogress nounwind uwtable
define linkonce_odr hidden void @_ZNSt4pairIcjEC2IRcRjTnNSt9enable_ifIXaaclsr5_PCCPE22_MoveConstructiblePairIT_T0_EEclsr5_PCCPE30_ImplicitlyMoveConvertiblePairIS5_S6_EEEbE4typeELb1EEEOS5_OS6_(ptr noundef nonnull align 4 dereferenceable(8) %0, ptr noundef nonnull align 1 dereferenceable(1) %1, ptr noundef nonnull align 4 dereferenceable(4) %2) unnamed_addr #1 comdat align 2 {
  %4 = alloca ptr, align 8
  %5 = alloca ptr, align 8
  %6 = alloca ptr, align 8
  store ptr %0, ptr %4, align 8
  store ptr %1, ptr %5, align 8
  store ptr %2, ptr %6, align 8
  %7 = load ptr, ptr %4, align 8
  %8 = getelementptr inbounds nuw %"struct.std::pair", ptr %7, i32 0, i32 0
  %9 = load ptr, ptr %5, align 8
  %10 = load i8, ptr %9, align 1
  store i8 %10, ptr %8, align 4
  %11 = getelementptr inbounds nuw %"struct.std::pair", ptr %7, i32 0, i32 1
  %12 = load ptr, ptr %6, align 8
  %13 = load i32, ptr %12, align 4
  store i32 %13, ptr %11, align 4
  ret void
}

; Function Attrs: mustprogress nounwind uwtable
define linkonce_odr hidden noundef i64 @_ZNK4llvm9StringRef4sizeEv(ptr noundef nonnull align 8 dereferenceable(16) %0) #1 comdat align 2 {
  %2 = alloca ptr, align 8
  store ptr %0, ptr %2, align 8
  %3 = load ptr, ptr %2, align 8
  %4 = getelementptr inbounds nuw %"class.llvm::StringRef", ptr %3, i32 0, i32 1
  %5 = load i64, ptr %4, align 8
  ret i64 %5
}

; Function Attrs: mustprogress nounwind uwtable
define linkonce_odr hidden noundef signext i8 @_ZNK4llvm9StringRefixEm(ptr noundef nonnull align 8 dereferenceable(16) %0, i64 noundef %1) #1 comdat align 2 {
  %3 = alloca ptr, align 8
  %4 = alloca i64, align 8
  store ptr %0, ptr %3, align 8
  store i64 %1, ptr %4, align 8
  %5 = load ptr, ptr %3, align 8
  %6 = getelementptr inbounds nuw %"class.llvm::StringRef", ptr %5, i32 0, i32 0
  %7 = load ptr, ptr %6, align 8
  %8 = load i64, ptr %4, align 8
  %9 = getelementptr inbounds i8, ptr %7, i64 %8
  %10 = load i8, ptr %9, align 1
  ret i8 %10
}

; Function Attrs: mustprogress nounwind uwtable
define linkonce_odr hidden noundef zeroext i1 @_ZNK4llvm9StringRef5emptyEv(ptr noundef nonnull align 8 dereferenceable(16) %0) #1 comdat align 2 {
  %2 = alloca ptr, align 8
  store ptr %0, ptr %2, align 8
  %3 = load ptr, ptr %2, align 8
  %4 = getelementptr inbounds nuw %"class.llvm::StringRef", ptr %3, i32 0, i32 1
  %5 = load i64, ptr %4, align 8
  %6 = icmp eq i64 %5, 0
  ret i1 %6
}

; Function Attrs: mustprogress nounwind uwtable
define dso_local i64 @_Z16getProtoModifierN4llvm9StringRefEj(ptr %0, i64 %1, i32 noundef %2) #1 {
  %4 = alloca %"struct.std::pair", align 4
  %5 = alloca %"class.llvm::StringRef", align 8
  %6 = alloca i32, align 4
  %7 = alloca i32, align 4
  %8 = alloca i32, align 4
  %9 = alloca i32, align 4
  %10 = alloca i8, align 1
  %11 = alloca %"class.llvm::StringRef", align 8
  %12 = getelementptr inbounds nuw { ptr, i64 }, ptr %5, i32 0, i32 0
  store ptr %0, ptr %12, align 8
  %13 = getelementptr inbounds nuw { ptr, i64 }, ptr %5, i32 0, i32 1
  store i64 %1, ptr %13, align 8
  store i32 %2, ptr %6, align 4
  store i32 0, ptr %7, align 4
  br label %14

14:                                               ; preds = %57, %3
  %15 = call noundef zeroext i1 @_ZNK4llvm9StringRef5emptyEv(ptr noundef nonnull align 8 dereferenceable(16) %5)
  %16 = xor i1 %15, true
  br i1 %16, label %17, label %60

17:                                               ; preds = %14
  store i32 1, ptr %8, align 4
  store i32 1, ptr %9, align 4
  %18 = call noundef signext i8 @_ZNK4llvm9StringRefixEm(ptr noundef nonnull align 8 dereferenceable(16) %5, i64 noundef 0)
  store i8 %18, ptr %10, align 1
  %19 = load i8, ptr %10, align 1
  %20 = sext i8 %19 to i32
  %21 = icmp eq i32 %20, 50
  br i1 %21, label %30, label %22

22:                                               ; preds = %17
  %23 = load i8, ptr %10, align 1
  %24 = sext i8 %23 to i32
  %25 = icmp eq i32 %24, 51
  br i1 %25, label %30, label %26

26:                                               ; preds = %22
  %27 = load i8, ptr %10, align 1
  %28 = sext i8 %27 to i32
  %29 = icmp eq i32 %28, 52
  br i1 %29, label %30, label %43

30:                                               ; preds = %26, %22, %17
  %31 = load i8, ptr %10, align 1
  %32 = sext i8 %31 to i32
  %33 = sub nsw i32 %32, 48
  store i32 %33, ptr %8, align 4
  store i8 100, ptr %10, align 1
  %34 = call noundef i64 @_ZNK4llvm9StringRef4sizeEv(ptr noundef nonnull align 8 dereferenceable(16) %5)
  %35 = icmp ugt i64 %34, 1
  br i1 %35, label %36, label %42

36:                                               ; preds = %30
  %37 = call noundef signext i8 @_ZNK4llvm9StringRefixEm(ptr noundef nonnull align 8 dereferenceable(16) %5, i64 noundef 1)
  %38 = sext i8 %37 to i32
  %39 = icmp eq i32 %38, 46
  br i1 %39, label %40, label %42

40:                                               ; preds = %36
  %41 = call noundef signext i8 @_ZNK4llvm9StringRefixEm(ptr noundef nonnull align 8 dereferenceable(16) %5, i64 noundef 2)
  store i8 %41, ptr %10, align 1
  store i32 3, ptr %9, align 4
  br label %42

42:                                               ; preds = %40, %36, %30
  br label %43

43:                                               ; preds = %42, %26
  %44 = load i32, ptr %7, align 4
  %45 = load i32, ptr %6, align 4
  %46 = icmp eq i32 %44, %45
  br i1 %46, label %47, label %49

47:                                               ; preds = %43
  call void @_ZNSt4pairIcjEC2IRcRjTnNSt9enable_ifIXaaclsr5_PCCPE22_MoveConstructiblePairIT_T0_EEclsr5_PCCPE30_ImplicitlyMoveConvertiblePairIS5_S6_EEEbE4typeELb1EEEOS5_OS6_(ptr noundef nonnull align 4 dereferenceable(8) %4, ptr noundef nonnull align 1 dereferenceable(1) %10, ptr noundef nonnull align 4 dereferenceable(4) %8)
  %48 = load i64, ptr %4, align 4
  ret i64 %48

49:                                               ; preds = %43
  %50 = load i32, ptr %9, align 4
  %51 = zext i32 %50 to i64
  %52 = call { ptr, i64 } @_ZNK4llvm9StringRef10drop_frontEm(ptr noundef nonnull align 8 dereferenceable(16) %5, i64 noundef %51)
  %53 = getelementptr inbounds nuw { ptr, i64 }, ptr %11, i32 0, i32 0
  %54 = extractvalue { ptr, i64 } %52, 0
  store ptr %54, ptr %53, align 8
  %55 = getelementptr inbounds nuw { ptr, i64 }, ptr %11, i32 0, i32 1
  %56 = extractvalue { ptr, i64 } %52, 1
  store i64 %56, ptr %55, align 8
  call void @llvm.memcpy.p0.p0.i64(ptr align 8 %5, ptr align 8 %11, i64 16, i1 false)
  br label %57

57:                                               ; preds = %49
  %58 = load i32, ptr %7, align 4
  %59 = add i32 %58, 1
  store i32 %59, ptr %7, align 4
  br label %14, !llvm.loop !4

60:                                               ; preds = %14
  unreachable
}