; Function Attrs: mustprogress nofree norecurse nosync nounwind memory(argmem: read, inaccessiblemem: write) uwtable
define dso_local range(i64 4294967296, 17179869440) i64 @_Z16getProtoModifierN4llvm9StringRefEj(ptr readonly captures(none) %0, i64 %1, i32 noundef %2) local_unnamed_addr #1 {
  br label %4

4:                                                ; preds = %21, %3
  %.sroa.6.0 = phi i64 [ %1, %3 ], [ %23, %21 ]
  %.sroa.0.0 = phi ptr [ %0, %3 ], [ %22, %21 ]
  %.0 = phi i32 [ 0, %3 ], [ %24, %21 ]
  %5 = icmp ne i64 %.sroa.6.0, 0
  tail call void @llvm.assume(i1 %5)
  %6 = load i8, ptr %.sroa.0.0, align 1
  %.off = add i8 %6, -50
  %switch = icmp ult i8 %.off, 3
  br i1 %switch, label %7, label %18

7:                                                ; preds = %4
  %8 = zext nneg i8 %6 to i32
  %9 = add nsw i32 %8, -48
  %10 = icmp ugt i64 %.sroa.6.0, 1
  br i1 %10, label %11, label %18

11:                                               ; preds = %7
  %12 = getelementptr inbounds nuw i8, ptr %.sroa.0.0, i64 1
  %13 = load i8, ptr %12, align 1
  %14 = icmp eq i8 %13, 46
  br i1 %14, label %15, label %18

15:                                               ; preds = %11
  %16 = getelementptr inbounds nuw i8, ptr %.sroa.0.0, i64 2
  %17 = load i8, ptr %16, align 1
  br label %18

18:                                               ; preds = %4, %7, %11, %15
  %.019 = phi i32 [ %9, %15 ], [ %9, %11 ], [ %9, %7 ], [ 1, %4 ]
  %.018 = phi i8 [ %17, %15 ], [ 100, %11 ], [ 100, %7 ], [ %6, %4 ]
  %.09 = phi i64 [ 3, %15 ], [ 1, %11 ], [ 1, %7 ], [ 1, %4 ]
  %19 = icmp eq i32 %.0, %2
  br i1 %19, label %20, label %21

20:                                               ; preds = %18
  %.sroa.217.0.insert.ext = zext nneg i32 %.019 to i64
  %.sroa.217.0.insert.shift = shl nuw nsw i64 %.sroa.217.0.insert.ext, 32
  %.sroa.016.0.insert.ext = zext i8 %.018 to i64
  %.sroa.016.0.insert.insert = or disjoint i64 %.sroa.217.0.insert.shift, %.sroa.016.0.insert.ext
  ret i64 %.sroa.016.0.insert.insert

21:                                               ; preds = %18
  %.sroa.speculated5.i.i = tail call i64 @llvm.umin.i64(i64 %.sroa.6.0, i64 %.09)
  %22 = getelementptr inbounds nuw i8, ptr %.sroa.0.0, i64 %.sroa.speculated5.i.i
  %23 = sub i64 %.sroa.6.0, %.sroa.speculated5.i.i
  %24 = add i32 %.0, 1
  br label %4, !llvm.loop !4
}